Certificate:
    Data:
        Version: 3 (0x2)
        Serial Number: 2 (0x2)
    Signature Algorithm: sha256WithRSAEncryption
        Issuer: C=KR, ST=Seoul, O=Samsung, OU=Tizen Test, CN=DRM Test Second CA/emailAddress=tt@gmail.com
        Validity
            Not Before: May 13 02:44:59 2015 GMT
            Not After : May 10 02:44:59 2025 GMT
        Subject: C=KR, ST=Seoul, O=Samsung, OU=Tizen Test, CN=DRM Test Signer/emailAddress=tt@gmail.com
        Subject Public Key Info:
            Public Key Algorithm: rsaEncryption
                Public-Key: (2048 bit)
                Modulus:
                    00:c5:cf:11:be:a6:0d:58:7a:20:6d:00:ba:30:ec:
                    cc:82:27:8b:de:f9:20:69:d5:19:a0:af:2b:0d:0d:
                    a0:57:dc:fa:1d:38:96:b6:d6:0f:b8:c6:82:4f:d9:
                    79:0d:0b:9b:13:e5:19:6f:c5:43:2f:09:40:c7:e4:
                    7a:a3:49:9e:c5:90:74:73:e4:36:95:1e:47:5e:2d:
                    9e:0a:73:e8:09:fc:ff:e2:2f:73:d2:51:cf:bb:e4:
                    36:c7:73:36:2c:86:14:80:fe:39:b7:e5:97:56:07:
                    8b:35:2b:41:21:69:a7:b3:cc:65:17:8d:74:01:11:
                    45:91:db:f3:6f:b6:4a:c2:ad:08:60:74:84:5d:f7:
                    89:8b:7a:49:4d:b3:56:d1:a5:f5:1b:fd:ad:11:88:
                    0d:83:75:d3:d4:e6:1f:10:a4:81:94:81:c7:cd:98:
                    8c:21:4e:2c:f5:f4:42:26:2e:fb:1f:e2:a1:bb:ab:
                    3d:0a:fa:51:e9:1e:aa:22:45:4d:00:91:e5:4f:60:
                    16:df:a6:a2:3b:1a:47:bc:a1:57:6f:f2:f4:c3:72:
                    bd:b3:f5:57:59:30:0f:0f:68:84:15:4b:03:50:86:
                    4c:8c:08:20:9c:15:d3:47:60:56:2a:bf:63:e9:74:
                    0b:8d:ef:96:c0:9f:ea:57:b4:d1:82:34:aa:c4:c5:
                    5a:c3
                Exponent: 65537 (0x10001)
        X509v3 extensions:
            X509v3 Basic Constraints: 
                CA:FALSE
            Netscape Comment: 
                OpenSSL Generated Certificate
            X509v3 Subject Key Identifier: 
                1A:5E:D1:3E:1C:C6:7F:39:CD:43:39:CF:44:BA:8C:7B:47:65:4A:33
            X509v3 Authority Key Identifier: 
                keyid:BC:86:10:C1:9C:17:32:04:67:03:20:E0:C0:6D:FE:76:60:2A:86:03

    Signature Algorithm: sha256WithRSAEncryption
         53:8c:af:93:96:ff:8e:2b:1b:1e:6f:63:47:bd:b7:83:af:1b:
         20:8f:66:9b:cf:f2:98:5b:3d:31:96:6f:d1:de:4e:bd:16:c8:
         f7:ef:4c:14:21:fe:91:a3:11:75:1a:6b:6a:77:2b:de:1f:61:
         0c:e3:0c:35:c6:74:78:f6:0f:53:be:31:b5:5f:ff:19:63:c1:
         1f:c5:81:36:ca:d3:02:10:13:26:e0:d4:cc:50:6a:5b:95:ab:
         a2:86:8a:81:d4:70:d7:e8:cc:fd:30:8c:15:b4:21:ce:59:1d:
         d0:cd:01:76:b1:a0:e4:db:0c:39:0b:a3:61:75:92:c8:95:1b:
         87:a8:32:9c:fe:09:ed:51:f3:dc:88:c8:99:6d:82:06:db:93:
         63:1e:54:f2:1a:4f:10:03:6c:f4:27:26:8a:2b:1b:42:73:cb:
         6a:35:42:47:62:92:8b:7a:99:32:d6:aa:15:fa:7c:3d:6e:30:
         92:41:fe:05:d3:3a:66:3f:a4:bd:e6:48:fc:a6:3d:74:4a:74:
         06:e9:8b:a5:7e:da:8f:16:75:e1:e9:b7:61:d9:b7:80:6e:96:
         e7:17:3a:da:c9:7b:0a:6e:bc:a8:81:a3:08:4d:90:76:50:40:
         6d:c2:6b:fa:50:a7:ad:49:0f:7b:d4:c0:fd:df:70:da:30:fb:
         13:ca:d0:a7
-----BEGIN CERTIFICATE-----
MIID7zCCAtegAwIBAgIBAjANBgkqhkiG9w0BAQsFADB+MQswCQYDVQQGEwJLUjEO
MAwGA1UECAwFU2VvdWwxEDAOBgNVBAoMB1NhbXN1bmcxEzARBgNVBAsMClRpemVu
IFRlc3QxGzAZBgNVBAMMEkRSTSBUZXN0IFNlY29uZCBDQTEbMBkGCSqGSIb3DQEJ
ARYMdHRAZ21haWwuY29tMB4XDTE1MDUxMzAyNDQ1OVoXDTI1MDUxMDAyNDQ1OVow
ezELMAkGA1UEBhMCS1IxDjAMBgNVBAgMBVNlb3VsMRAwDgYDVQQKDAdTYW1zdW5n
MRMwEQYDVQQLDApUaXplbiBUZXN0MRgwFgYDVQQDDA9EUk0gVGVzdCBTaWduZXIx
GzAZBgkqhkiG9w0BCQEWDHR0QGdtYWlsLmNvbTCCASIwDQYJKoZIhvcNAQEBBQAD
ggEPADCCAQoCggEBAMXPEb6mDVh6IG0AujDszIIni975IGnVGaCvKw0NoFfc+h04
lrbWD7jGgk/ZeQ0LmxPlGW/FQy8JQMfkeqNJnsWQdHPkNpUeR14tngpz6An8/+Iv
c9JRz7vkNsdzNiyGFID+Obfll1YHizUrQSFpp7PMZReNdAERRZHb82+2SsKtCGB0
hF33iYt6SU2zVtGl9Rv9rRGIDYN109TmHxCkgZSBx82YjCFOLPX0QiYu+x/iobur
PQr6UekeqiJFTQCR5U9gFt+mojsaR7yhV2/y9MNyvbP1V1kwDw9ohBVLA1CGTIwI
IJwV00dgViq/Y+l0C43vlsCf6le00YI0qsTFWsMCAwEAAaN7MHkwCQYDVR0TBAIw
ADAsBglghkgBhvhCAQ0EHxYdT3BlblNTTCBHZW5lcmF0ZWQgQ2VydGlmaWNhdGUw
HQYDVR0OBBYEFBpe0T4cxn85zUM5z0S6jHtHZUozMB8GA1UdIwQYMBaAFLyGEMGc
FzIEZwMg4MBt/nZgKoYDMA0GCSqGSIb3DQEBCwUAA4IBAQBTjK+Tlv+OKxseb2NH
vbeDrxsgj2abz/KYWz0xlm/R3k69Fsj370wUIf6RoxF1GmtqdyveH2EM4ww1xnR4
9g9TvjG1X/8ZY8EfxYE2ytMCEBMm4NTMUGpblauihoqB1HDX6Mz9MIwVtCHOWR3Q
zQF2saDk2ww5C6NhdZLIlRuHqDKc/gntUfPciMiZbYIG25NjHlTyGk8QA2z0JyaK
KxtCc8tqNUJHYpKLepky1qoV+nw9bjCSQf4F0zpmP6S95kj8pj10SnQG6YulftqP
FnXh6bdh2beAbpbnFzrayXsKbryogaMITZB2UEBtwmv6UKetSQ971MD933DaMPsT
ytCn
-----END CERTIFICATE-----
