Certificate:
    Data:
        Version: 3 (0x2)
        Serial Number: 1 (0x1)
    Signature Algorithm: sha256WithRSAEncryption
        Issuer: C=KR, ST=Seoul, O=Samsung, OU=Tizen Test, CN=DRM Test Root CA/emailAddress=tt@gmail.com
        Validity
            Not Before: May 13 02:43:49 2015 GMT
            Not After : May 10 02:43:49 2025 GMT
        Subject: C=KR, ST=Seoul, O=Samsung, OU=Tizen Test, CN=DRM Test Second CA/emailAddress=tt@gmail.com
        Subject Public Key Info:
            Public Key Algorithm: rsaEncryption
                Public-Key: (2048 bit)
                Modulus:
                    00:e3:30:ab:f6:94:94:87:e0:cb:07:2a:d9:e6:db:
                    35:c9:2c:fa:38:c0:7a:0e:29:ba:da:71:ec:da:23:
                    46:87:59:13:48:14:96:bd:d2:d6:1d:56:55:ac:04:
                    51:87:20:59:dd:bd:3c:fd:7d:b4:a4:d3:94:a2:1d:
                    72:d9:ae:a2:8a:1d:79:63:a5:e0:94:4f:82:06:8e:
                    89:e6:49:4a:7c:77:d1:c4:41:c7:49:01:fb:14:19:
                    dc:9d:5c:54:66:ae:6c:47:21:58:d7:18:7f:96:6b:
                    41:8d:f9:a1:39:ce:3e:3d:f9:2c:d7:4d:3d:8d:8c:
                    4e:b5:bb:5f:a1:04:34:16:50:ee:ea:1d:4c:c0:2d:
                    9f:1a:3a:55:54:5d:e0:a2:5a:6a:b1:87:fa:31:47:
                    6c:a9:48:1e:88:97:35:9e:8e:c4:c7:c3:59:d5:23:
                    09:3e:a9:0f:2c:06:43:59:9d:09:f7:80:93:b9:18:
                    e3:38:21:96:ec:6e:b3:dd:c1:ca:90:48:9a:63:06:
                    0f:b8:1f:5a:03:16:bb:0c:8f:73:49:17:51:23:c7:
                    24:5a:83:e5:5c:0a:00:80:de:20:2a:a5:c1:72:e7:
                    f8:db:02:b6:61:c5:e5:5e:3d:8a:d6:33:9e:f3:2f:
                    2d:35:64:d4:74:82:46:70:07:a1:4c:91:fa:f1:83:
                    a7:d9
                Exponent: 65537 (0x10001)
        X509v3 extensions:
            X509v3 Subject Key Identifier: 
                BC:86:10:C1:9C:17:32:04:67:03:20:E0:C0:6D:FE:76:60:2A:86:03
            X509v3 Authority Key Identifier: 
                keyid:33:56:CF:8A:7F:70:9C:63:2B:05:D6:BD:3F:78:1B:77:3C:89:73:46

            X509v3 Basic Constraints: 
                CA:TRUE
    Signature Algorithm: sha256WithRSAEncryption
         06:fc:3f:04:a1:6d:39:1a:07:2a:a3:b1:96:be:40:19:41:3d:
         33:8e:60:3d:3a:e8:24:57:0a:0c:fc:da:8b:c2:a0:1b:0f:66:
         07:1f:af:65:73:71:5e:b7:17:3a:8a:b9:e7:a2:b7:4a:cc:6a:
         b9:23:66:42:e9:60:e3:2e:10:55:48:f7:06:ce:8a:eb:e1:e7:
         97:14:81:e5:91:e3:6c:b2:85:ce:8e:34:b6:2c:d1:63:62:ff:
         06:82:65:04:3f:63:9b:da:b5:1b:9a:bc:22:de:78:e1:32:ed:
         83:e4:77:66:3a:0c:98:ce:80:08:ab:98:c6:25:bd:cf:82:76:
         31:98:8d:7b:7b:d1:3e:4e:ed:91:18:13:4a:b8:70:92:b0:19:
         2b:ee:95:be:33:ad:c3:6c:68:9d:8e:da:32:72:f0:42:12:ae:
         c4:09:88:82:74:84:aa:75:78:6d:92:e8:67:f5:26:ac:20:e1:
         83:00:f0:63:b2:91:ab:4d:0f:2b:13:84:9e:fd:c6:5a:e6:9d:
         b9:f4:3b:fc:28:a0:a1:1c:a9:2e:48:77:3c:c7:8b:95:ee:c5:
         49:34:ff:1d:3e:16:ee:2b:68:ec:28:11:a3:a7:9e:38:c1:97:
         6f:7c:7a:3e:9a:d3:c9:74:7f:67:a8:50:27:32:0d:f5:5f:17:
         38:8d:43:f4
-----BEGIN CERTIFICATE-----
MIIDxTCCAq2gAwIBAgIBATANBgkqhkiG9w0BAQsFADB8MQswCQYDVQQGEwJLUjEO
MAwGA1UECAwFU2VvdWwxEDAOBgNVBAoMB1NhbXN1bmcxEzARBgNVBAsMClRpemVu
IFRlc3QxGTAXBgNVBAMMEERSTSBUZXN0IFJvb3QgQ0ExGzAZBgkqhkiG9w0BCQEW
DHR0QGdtYWlsLmNvbTAeFw0xNTA1MTMwMjQzNDlaFw0yNTA1MTAwMjQzNDlaMH4x
CzAJBgNVBAYTAktSMQ4wDAYDVQQIDAVTZW91bDEQMA4GA1UECgwHU2Ftc3VuZzET
MBEGA1UECwwKVGl6ZW4gVGVzdDEbMBkGA1UEAwwSRFJNIFRlc3QgU2Vjb25kIENB
MRswGQYJKoZIhvcNAQkBFgx0dEBnbWFpbC5jb20wggEiMA0GCSqGSIb3DQEBAQUA
A4IBDwAwggEKAoIBAQDjMKv2lJSH4MsHKtnm2zXJLPo4wHoOKbracezaI0aHWRNI
FJa90tYdVlWsBFGHIFndvTz9fbSk05SiHXLZrqKKHXljpeCUT4IGjonmSUp8d9HE
QcdJAfsUGdydXFRmrmxHIVjXGH+Wa0GN+aE5zj49+SzXTT2NjE61u1+hBDQWUO7q
HUzALZ8aOlVUXeCiWmqxh/oxR2ypSB6IlzWejsTHw1nVIwk+qQ8sBkNZnQn3gJO5
GOM4IZbsbrPdwcqQSJpjBg+4H1oDFrsMj3NJF1EjxyRag+VcCgCA3iAqpcFy5/jb
ArZhxeVePYrWM57zLy01ZNR0gkZwB6FMkfrxg6fZAgMBAAGjUDBOMB0GA1UdDgQW
BBS8hhDBnBcyBGcDIODAbf52YCqGAzAfBgNVHSMEGDAWgBQzVs+Kf3CcYysF1r0/
eBt3PIlzRjAMBgNVHRMEBTADAQH/MA0GCSqGSIb3DQEBCwUAA4IBAQAG/D8EoW05
Ggcqo7GWvkAZQT0zjmA9OugkVwoM/NqLwqAbD2YHH69lc3Fetxc6irnnordKzGq5
I2ZC6WDjLhBVSPcGzorr4eeXFIHlkeNssoXOjjS2LNFjYv8GgmUEP2Ob2rUbmrwi
3njhMu2D5HdmOgyYzoAIq5jGJb3PgnYxmI17e9E+Tu2RGBNKuHCSsBkr7pW+M63D
bGidjtoycvBCEq7ECYiCdISqdXhtkuhn9SasIOGDAPBjspGrTQ8rE4Se/cZa5p25
9Dv8KKChHKkuSHc8x4uV7sVJNP8dPhbuK2jsKBGjp544wZdvfHo+mtPJdH9nqFAn
Mg31Xxc4jUP0
-----END CERTIFICATE-----
