Certificate:
    Data:
        Version: 3 (0x2)
        Serial Number: 0 (0x0)
    Signature Algorithm: sha256WithRSAEncryption
        Issuer: C=KR, ST=Seoul, O=Samsung, OU=Tizen Test, CN=DRM Test Root CA/emailAddress=tt@gmail.com
        Validity
            Not Before: May 13 02:40:08 2015 GMT
            Not After : May 10 02:40:08 2025 GMT
        Subject: C=KR, ST=Seoul, O=Samsung, OU=Tizen Test, CN=DRM Test Root CA/emailAddress=tt@gmail.com
        Subject Public Key Info:
            Public Key Algorithm: rsaEncryption
                Public-Key: (2048 bit)
                Modulus:
                    00:c1:19:d2:af:44:66:fd:fe:80:80:63:46:cc:eb:
                    60:dd:86:2d:61:d2:42:e4:f9:38:21:27:3a:eb:14:
                    c2:ed:90:7a:73:ca:9d:46:33:a7:f5:83:0e:e7:13:
                    23:00:19:10:08:f8:72:4b:ab:c2:79:f8:24:ac:83:
                    f6:97:23:c2:ca:36:73:10:87:ed:2d:18:0c:ea:d8:
                    97:ca:8d:70:0d:48:0a:ce:04:6c:60:00:dd:10:0d:
                    76:d9:0d:e1:94:9a:27:9b:1d:91:30:34:d0:1a:f4:
                    b8:81:26:19:70:ef:b5:a8:b0:a4:6a:37:79:de:fe:
                    4c:12:26:c8:c0:e0:11:dd:39:b9:43:30:19:55:ab:
                    6a:ae:49:e5:1c:c1:9c:3e:c1:8d:84:0e:ec:20:04:
                    dd:88:37:a2:50:d0:74:00:99:cd:6a:ae:c0:b9:68:
                    bf:20:80:60:21:d2:f3:ac:6a:5c:30:fb:bb:25:32:
                    da:fc:cb:47:dd:58:b7:cb:b9:75:eb:ca:6e:e0:ba:
                    d9:b0:93:45:14:4c:6c:4c:1b:e7:ad:1a:b4:7a:7b:
                    62:68:83:7a:d2:82:55:1b:9f:ba:3d:7f:7a:9a:01:
                    02:62:d6:76:a2:5d:54:8c:cc:a5:d0:d3:c5:a0:16:
                    6f:dc:cc:dd:14:73:6a:ef:4e:da:60:1f:0b:71:8b:
                    0d:6d
                Exponent: 65537 (0x10001)
        X509v3 extensions:
            X509v3 Subject Key Identifier: 
                33:56:CF:8A:7F:70:9C:63:2B:05:D6:BD:3F:78:1B:77:3C:89:73:46
            X509v3 Authority Key Identifier: 
                keyid:33:56:CF:8A:7F:70:9C:63:2B:05:D6:BD:3F:78:1B:77:3C:89:73:46

            X509v3 Basic Constraints: 
                CA:TRUE
    Signature Algorithm: sha256WithRSAEncryption
         05:ae:53:8b:c3:70:53:24:c7:a9:eb:8b:5f:fd:11:d0:06:4d:
         c4:0e:ec:27:c7:09:88:f9:6e:fa:e2:ba:13:37:f8:e1:39:6b:
         b4:b3:49:eb:13:58:38:e9:51:71:1e:fa:f1:29:7e:56:ad:43:
         03:80:61:d3:85:81:67:34:4b:a1:12:f0:2c:6f:3a:6c:b9:e2:
         51:a5:4f:95:5a:07:fe:c6:77:e1:5a:2b:b6:da:26:23:98:35:
         96:25:66:34:79:87:66:13:9a:34:56:57:49:e0:4e:b2:63:82:
         93:c3:9e:a0:5b:b5:fe:52:43:13:4d:cb:d4:25:e2:5d:a9:39:
         b9:0e:18:4b:5d:96:b5:4e:20:05:ea:f5:01:d4:5c:93:d3:3f:
         76:5d:19:75:8d:28:d8:47:0c:7e:59:6f:16:6b:95:aa:7e:3c:
         0c:36:53:0f:03:40:63:27:fb:53:53:e9:52:73:9a:05:d8:26:
         5f:92:9d:37:85:b5:04:0f:2c:f6:5d:fe:68:f0:1b:3a:d9:ea:
         cd:51:52:2c:6f:9d:5e:ed:c5:8c:e7:c0:43:bd:11:46:89:d7:
         86:51:61:50:da:b6:6a:e3:1e:88:47:3d:db:8b:2a:29:a2:ab:
         34:8e:08:4b:14:db:ab:64:99:71:ef:18:a0:4b:aa:3b:f0:85:
         e3:81:c2:f6
-----BEGIN CERTIFICATE-----
MIIDwzCCAqugAwIBAgIBADANBgkqhkiG9w0BAQsFADB8MQswCQYDVQQGEwJLUjEO
MAwGA1UECAwFU2VvdWwxEDAOBgNVBAoMB1NhbXN1bmcxEzARBgNVBAsMClRpemVu
IFRlc3QxGTAXBgNVBAMMEERSTSBUZXN0IFJvb3QgQ0ExGzAZBgkqhkiG9w0BCQEW
DHR0QGdtYWlsLmNvbTAeFw0xNTA1MTMwMjQwMDhaFw0yNTA1MTAwMjQwMDhaMHwx
CzAJBgNVBAYTAktSMQ4wDAYDVQQIDAVTZW91bDEQMA4GA1UECgwHU2Ftc3VuZzET
MBEGA1UECwwKVGl6ZW4gVGVzdDEZMBcGA1UEAwwQRFJNIFRlc3QgUm9vdCBDQTEb
MBkGCSqGSIb3DQEJARYMdHRAZ21haWwuY29tMIIBIjANBgkqhkiG9w0BAQEFAAOC
AQ8AMIIBCgKCAQEAwRnSr0Rm/f6AgGNGzOtg3YYtYdJC5Pk4ISc66xTC7ZB6c8qd
RjOn9YMO5xMjABkQCPhyS6vCefgkrIP2lyPCyjZzEIftLRgM6tiXyo1wDUgKzgRs
YADdEA122Q3hlJonmx2RMDTQGvS4gSYZcO+1qLCkajd53v5MEibIwOAR3Tm5QzAZ
VatqrknlHMGcPsGNhA7sIATdiDeiUNB0AJnNaq7AuWi/IIBgIdLzrGpcMPu7JTLa
/MtH3Vi3y7l168pu4LrZsJNFFExsTBvnrRq0entiaIN60oJVG5+6PX96mgECYtZ2
ol1UjMyl0NPFoBZv3MzdFHNq707aYB8LcYsNbQIDAQABo1AwTjAdBgNVHQ4EFgQU
M1bPin9wnGMrBda9P3gbdzyJc0YwHwYDVR0jBBgwFoAUM1bPin9wnGMrBda9P3gb
dzyJc0YwDAYDVR0TBAUwAwEB/zANBgkqhkiG9w0BAQsFAAOCAQEABa5Ti8NwUyTH
qeuLX/0R0AZNxA7sJ8cJiPlu+uK6Ezf44TlrtLNJ6xNYOOlRcR768Sl+Vq1DA4Bh
04WBZzRLoRLwLG86bLniUaVPlVoH/sZ34VorttomI5g1liVmNHmHZhOaNFZXSeBO
smOCk8OeoFu1/lJDE03L1CXiXak5uQ4YS12WtU4gBer1AdRck9M/dl0ZdY0o2EcM
fllvFmuVqn48DDZTDwNAYyf7U1PpUnOaBdgmX5KdN4W1BA8s9l3+aPAbOtnqzVFS
LG+dXu3FjOfAQ70RRonXhlFhUNq2auMeiEc924sqKaKrNI4ISxTbq2SZce8YoEuq
O/CF44HC9g==
-----END CERTIFICATE-----
